target datalayout = "e-m:e-p270:32:32-p271:32:32-p272:64:64-i64:64-i128:128-f80:128-n8:16:32:64-S128"
target triple = "x86_64-pc-linux-gnu"

@.str.2 = private unnamed_addr constant [9 x i8] c"rewriter\00", align 1
@.str.3 = private unnamed_addr constant [11 x i8] c"sort_store\00", align 1
@.str.4 = private unnamed_addr constant [20 x i8] c"expand_select_store\00", align 1
@.str.5 = private unnamed_addr constant [16 x i8] c"expand_store_eq\00", align 1
@.str.6 = private unnamed_addr constant [21 x i8] c"expand_nested_stores\00", align 1
@.str.7 = private unnamed_addr constant [19 x i8] c"blast_select_store\00", align 1
@.str.8 = private unnamed_addr constant [18 x i8] c"expand_select_ite\00", align 1
@.str.9 = private unnamed_addr constant [79 x i8] c"conservatively replace a (select (store ...) ...) term by an if-then-else term\00", align 1
@.str.10 = private unnamed_addr constant [6 x i8] c"false\00", align 1
@.str.11 = private unnamed_addr constant [72 x i8] c"eagerly replace all (select (store ..) ..) term by an if-then-else term\00", align 1
@.str.12 = private unnamed_addr constant [45 x i8] c"replace nested stores by a lambda expression\00", align 1
@.str.13 = private unnamed_addr constant [35 x i8] c"expand select over ite expressions\00", align 1
@.str.14 = private unnamed_addr constant [65 x i8] c"reduce (store ...) = (store ...) with a common base into selects\00", align 1
@.str.15 = private unnamed_addr constant [62 x i8] c"sort nested stores when the indices are known to be different\00", align 1

; Function Attrs: mustprogress uwtable
define linkonce_odr hidden void @_ZN21array_rewriter_params20collect_param_descrsER12param_descrs(ptr noundef nonnull align 8 dereferenceable(8) %0) #4 comdat align 2 {
  %2 = alloca ptr, align 8
  store ptr %0, ptr %2, align 8, !tbaa !28
  %3 = load ptr, ptr %2, align 8, !tbaa !28
  call void @_ZN12param_descrs6insertEPKc12cmd_arg_kindS1_S1_S1_(ptr noundef nonnull align 8 dereferenceable(8) %3, ptr noundef @.str.4, i32 noundef 1, ptr noundef @.str.9, ptr noundef @.str.10, ptr noundef @.str.2)
  %4 = load ptr, ptr %2, align 8, !tbaa !28
  call void @_ZN12param_descrs6insertEPKc12cmd_arg_kindS1_S1_S1_(ptr noundef nonnull align 8 dereferenceable(8) %4, ptr noundef @.str.7, i32 noundef 1, ptr noundef @.str.11, ptr noundef @.str.10, ptr noundef @.str.2)
  %5 = load ptr, ptr %2, align 8, !tbaa !28
  call void @_ZN12param_descrs6insertEPKc12cmd_arg_kindS1_S1_S1_(ptr noundef nonnull align 8 dereferenceable(8) %5, ptr noundef @.str.6, i32 noundef 1, ptr noundef @.str.12, ptr noundef @.str.10, ptr noundef @.str.2)
  %6 = load ptr, ptr %2, align 8, !tbaa !28
  call void @_ZN12param_descrs6insertEPKc12cmd_arg_kindS1_S1_S1_(ptr noundef nonnull align 8 dereferenceable(8) %6, ptr noundef @.str.8, i32 noundef 1, ptr noundef @.str.13, ptr noundef @.str.10, ptr noundef @.str.2)
  %7 = load ptr, ptr %2, align 8, !tbaa !28
  call void @_ZN12param_descrs6insertEPKc12cmd_arg_kindS1_S1_S1_(ptr noundef nonnull align 8 dereferenceable(8) %7, ptr noundef @.str.5, i32 noundef 1, ptr noundef @.str.14, ptr noundef @.str.10, ptr noundef @.str.2)
  %8 = load ptr, ptr %2, align 8, !tbaa !28
  call void @_ZN12param_descrs6insertEPKc12cmd_arg_kindS1_S1_S1_(ptr noundef nonnull align 8 dereferenceable(8) %8, ptr noundef @.str.3, i32 noundef 1, ptr noundef @.str.15, ptr noundef @.str.10, ptr noundef @.str.2)
  ret void
}

; Function Attrs: mustprogress uwtable
define hidden void @_ZN14array_rewriter16get_param_descrsER12param_descrs(ptr noundef nonnull align 8 dereferenceable(8) %0) #4 align 2 {
  %2 = alloca ptr, align 8
  store ptr %0, ptr %2, align 8, !tbaa !28
  %3 = load ptr, ptr %2, align 8, !tbaa !28
  call void @_ZN21array_rewriter_params20collect_param_descrsER12param_descrs(ptr noundef nonnull align 8 dereferenceable(8) %3)
  ret void
}